; Function Attrs: nounwind uwtable
define hidden noalias noundef ptr @CONF_VALUE_new() local_unnamed_addr #0 {
  %calloc = tail call dereferenceable_or_null(24) ptr @calloc(i64 1, i64 24)
  %.not = icmp eq ptr %calloc, null
  br i1 %.not, label %1, label %2

1:                                                ; preds = %0
  tail call void @ERR_put_error(i32 noundef 13, i32 noundef 0, i32 noundef 65, ptr noundef nonnull @.str, i32 noundef 118) #12
  br label %2

2:                                                ; preds = %0, %1
  ret ptr %calloc
}